target datalayout = "e-m:e-p270:32:32-p271:32:32-p272:64:64-i64:64-i128:128-f80:128-n8:16:32:64-S128"
target triple = "x86_64-pc-linux-gnu"

%struct.Fra_Sml_t_ = type { ptr, i32, i32, i32, i32, i32, i32, i32, i32, [0 x i32] }
%struct.Vec_Int_t_ = type { i32, i32, ptr }
%struct.Fra_Man_t_ = type { ptr, ptr, ptr, i32, ptr, i32, ptr, ptr, ptr, i32, ptr, ptr, ptr, ptr, i32, ptr, i64, i64, ptr, ptr, i32, ptr, i32, i32, i32, i32, i32, i32, i32, i32, i32, i32, i32, i32, i32, i32, i32, i32, i32, i32, i32, i64, i64, i64, i64, i64, i64, i64, i64, i64, i64, i64 }
%struct.Fra_Par_t_ = type { i32, double, i32, i32, double, double, i32, i32, i32, i32, i32, i32, i32, i32, i32, i32, i32, i32, i32, i32, i32, i32, i32, i32, i32 }
%struct.Fra_Cla_t_ = type { ptr, ptr, ptr, ptr, ptr, ptr, ptr, ptr, ptr, i32, i32, ptr, ptr, ptr, ptr }

; Function Attrs: inlinehint nounwind uwtable
define internal ptr @Fra_ObjSim(ptr noundef %0, i32 noundef %1) #2 {
  %3 = alloca ptr, align 8
  %4 = alloca i32, align 4
  store ptr %0, ptr %3, align 8, !tbaa !3
  store i32 %1, ptr %4, align 4, !tbaa !8
  %5 = load ptr, ptr %3, align 8, !tbaa !3
  %6 = getelementptr inbounds nuw %struct.Fra_Sml_t_, ptr %5, i32 0, i32 9
  %7 = getelementptr inbounds [0 x i32], ptr %6, i64 0, i64 0
  %8 = load ptr, ptr %3, align 8, !tbaa !3
  %9 = getelementptr inbounds nuw %struct.Fra_Sml_t_, ptr %8, i32 0, i32 4
  %10 = load i32, ptr %9, align 4, !tbaa !12
  %11 = load i32, ptr %4, align 4, !tbaa !8
  %12 = mul nsw i32 %10, %11
  %13 = sext i32 %12 to i64
  %14 = getelementptr inbounds i32, ptr %7, i64 %13
  ret ptr %14
}

; Function Attrs: inlinehint nounwind uwtable
define internal i32 @Sml_NodeCheckImp(ptr noundef %0, i32 noundef %1, i32 noundef %2) #2 {
  %4 = alloca i32, align 4
  %5 = alloca ptr, align 8
  %6 = alloca i32, align 4
  %7 = alloca i32, align 4
  %8 = alloca ptr, align 8
  %9 = alloca ptr, align 8
  %10 = alloca i32, align 4
  %11 = alloca i32, align 4
  store ptr %0, ptr %5, align 8, !tbaa !3
  store i32 %1, ptr %6, align 4, !tbaa !8
  store i32 %2, ptr %7, align 4, !tbaa !8
  call void @llvm.lifetime.start.p0(i64 8, ptr %8) #10
  call void @llvm.lifetime.start.p0(i64 8, ptr %9) #10
  call void @llvm.lifetime.start.p0(i64 4, ptr %10) #10
  %12 = load ptr, ptr %5, align 8, !tbaa !3
  %13 = load i32, ptr %6, align 4, !tbaa !8
  %14 = call ptr @Fra_ObjSim(ptr noundef %12, i32 noundef %13)
  store ptr %14, ptr %8, align 8, !tbaa !10
  %15 = load ptr, ptr %5, align 8, !tbaa !3
  %16 = load i32, ptr %7, align 4, !tbaa !8
  %17 = call ptr @Fra_ObjSim(ptr noundef %15, i32 noundef %16)
  store ptr %17, ptr %9, align 8, !tbaa !10
  %18 = load ptr, ptr %5, align 8, !tbaa !3
  %19 = getelementptr inbounds nuw %struct.Fra_Sml_t_, ptr %18, i32 0, i32 5
  %20 = load i32, ptr %19, align 8, !tbaa !76
  store i32 %20, ptr %10, align 4, !tbaa !8
  br label %21

21:                                               ; preds = %43, %3
  %22 = load i32, ptr %10, align 4, !tbaa !8
  %23 = load ptr, ptr %5, align 8, !tbaa !3
  %24 = getelementptr inbounds nuw %struct.Fra_Sml_t_, ptr %23, i32 0, i32 4
  %25 = load i32, ptr %24, align 4, !tbaa !12
  %26 = icmp slt i32 %22, %25
  br i1 %26, label %27, label %46

27:                                               ; preds = %21
  %28 = load ptr, ptr %8, align 8, !tbaa !10
  %29 = load i32, ptr %10, align 4, !tbaa !8
  %30 = sext i32 %29 to i64
  %31 = getelementptr inbounds i32, ptr %28, i64 %30
  %32 = load i32, ptr %31, align 4, !tbaa !8
  %33 = load ptr, ptr %9, align 8, !tbaa !10
  %34 = load i32, ptr %10, align 4, !tbaa !8
  %35 = sext i32 %34 to i64
  %36 = getelementptr inbounds i32, ptr %33, i64 %35
  %37 = load i32, ptr %36, align 4, !tbaa !8
  %38 = xor i32 %37, -1
  %39 = and i32 %32, %38
  %40 = icmp ne i32 %39, 0
  br i1 %40, label %41, label %42

41:                                               ; preds = %27
  store i32 0, ptr %4, align 4
  store i32 1, ptr %11, align 4
  br label %47

42:                                               ; preds = %27
  br label %43

43:                                               ; preds = %42
  %44 = load i32, ptr %10, align 4, !tbaa !8
  %45 = add nsw i32 %44, 1
  store i32 %45, ptr %10, align 4, !tbaa !8
  br label %21, !llvm.loop !77

46:                                               ; preds = %21
  store i32 1, ptr %4, align 4
  store i32 1, ptr %11, align 4
  br label %47

47:                                               ; preds = %46, %41
  call void @llvm.lifetime.end.p0(i64 4, ptr %10) #10
  call void @llvm.lifetime.end.p0(i64 8, ptr %9) #10
  call void @llvm.lifetime.end.p0(i64 8, ptr %8) #10
  %48 = load i32, ptr %4, align 4
  ret i32 %48
}

; Function Attrs: inlinehint nounwind uwtable
define internal i32 @Fra_ImpRight(i32 noundef %0) #2 {
  %2 = alloca i32, align 4
  store i32 %0, ptr %2, align 4, !tbaa !8
  %3 = load i32, ptr %2, align 4, !tbaa !8
  %4 = ashr i32 %3, 16
  ret i32 %4
}

; Function Attrs: inlinehint nounwind uwtable
define internal i32 @Fra_ImpLeft(i32 noundef %0) #2 {
  %2 = alloca i32, align 4
  store i32 %0, ptr %2, align 4, !tbaa !8
  %3 = load i32, ptr %2, align 4, !tbaa !8
  %4 = and i32 %3, 65535
  ret i32 %4
}

; Function Attrs: inlinehint nounwind uwtable
define internal i32 @Vec_IntEntry(ptr noundef %0, i32 noundef %1) #2 {
  %3 = alloca ptr, align 8
  %4 = alloca i32, align 4
  store ptr %0, ptr %3, align 8, !tbaa !41
  store i32 %1, ptr %4, align 4, !tbaa !8
  %5 = load ptr, ptr %3, align 8, !tbaa !41
  %6 = getelementptr inbounds nuw %struct.Vec_Int_t_, ptr %5, i32 0, i32 2
  %7 = load ptr, ptr %6, align 8, !tbaa !48
  %8 = load i32, ptr %4, align 4, !tbaa !8
  %9 = sext i32 %8 to i64
  %10 = getelementptr inbounds i32, ptr %7, i64 %9
  %11 = load i32, ptr %10, align 4, !tbaa !8
  ret i32 %11
}

; Function Attrs: inlinehint nounwind uwtable
define internal i32 @Vec_IntSize(ptr noundef %0) #2 {
  %2 = alloca ptr, align 8
  store ptr %0, ptr %2, align 8, !tbaa !41
  %3 = load ptr, ptr %2, align 8, !tbaa !41
  %4 = getelementptr inbounds nuw %struct.Vec_Int_t_, ptr %3, i32 0, i32 1
  %5 = load i32, ptr %4, align 4, !tbaa !45
  ret i32 %5
}

; Function Attrs: nounwind uwtable
define i32 @Fra_ImpVerifyUsingSimulation(ptr noundef %0) #0 {
  %2 = alloca i32, align 4
  %3 = alloca ptr, align 8
  %4 = alloca i32, align 4
  %5 = alloca i32, align 4
  %6 = alloca ptr, align 8
  %7 = alloca ptr, align 8
  %8 = alloca i32, align 4
  %9 = alloca i32, align 4
  %10 = alloca i32, align 4
  %11 = alloca i32, align 4
  %12 = alloca i32, align 4
  %13 = alloca i32, align 4
  store ptr %0, ptr %3, align 8, !tbaa !53
  call void @llvm.lifetime.start.p0(i64 4, ptr %4) #10
  store i32 2000, ptr %4, align 4, !tbaa !8
  call void @llvm.lifetime.start.p0(i64 4, ptr %5) #10
  store i32 8, ptr %5, align 4, !tbaa !8
  call void @llvm.lifetime.start.p0(i64 8, ptr %6) #10
  call void @llvm.lifetime.start.p0(i64 8, ptr %7) #10
  call void @llvm.lifetime.start.p0(i64 4, ptr %8) #10
  call void @llvm.lifetime.start.p0(i64 4, ptr %9) #10
  call void @llvm.lifetime.start.p0(i64 4, ptr %10) #10
  call void @llvm.lifetime.start.p0(i64 4, ptr %11) #10
  call void @llvm.lifetime.start.p0(i64 4, ptr %12) #10
  %14 = load ptr, ptr %3, align 8, !tbaa !53
  %15 = getelementptr inbounds nuw %struct.Fra_Man_t_, ptr %14, i32 0, i32 6
  %16 = load ptr, ptr %15, align 8, !tbaa !94
  %17 = getelementptr inbounds nuw %struct.Fra_Cla_t_, ptr %16, i32 0, i32 11
  %18 = load ptr, ptr %17, align 8, !tbaa !101
  %19 = icmp eq ptr %18, null
  br i1 %19, label %28, label %20

20:                                               ; preds = %1
  %21 = load ptr, ptr %3, align 8, !tbaa !53
  %22 = getelementptr inbounds nuw %struct.Fra_Man_t_, ptr %21, i32 0, i32 6
  %23 = load ptr, ptr %22, align 8, !tbaa !94
  %24 = getelementptr inbounds nuw %struct.Fra_Cla_t_, ptr %23, i32 0, i32 11
  %25 = load ptr, ptr %24, align 8, !tbaa !101
  %26 = call i32 @Vec_IntSize(ptr noundef %25)
  %27 = icmp eq i32 %26, 0
  br i1 %27, label %28, label %29

28:                                               ; preds = %20, %1
  store i32 0, ptr %2, align 4
  store i32 1, ptr %13, align 4
  br label %129

29:                                               ; preds = %20
  %30 = load ptr, ptr %3, align 8, !tbaa !53
  %31 = getelementptr inbounds nuw %struct.Fra_Man_t_, ptr %30, i32 0, i32 1
  %32 = load ptr, ptr %31, align 8, !tbaa !56
  %33 = load ptr, ptr %3, align 8, !tbaa !53
  %34 = getelementptr inbounds nuw %struct.Fra_Man_t_, ptr %33, i32 0, i32 0
  %35 = load ptr, ptr %34, align 8, !tbaa !63
  %36 = getelementptr inbounds nuw %struct.Fra_Par_t_, ptr %35, i32 0, i32 15
  %37 = load i32, ptr %36, align 4, !tbaa !64
  %38 = load i32, ptr %4, align 4, !tbaa !8
  %39 = load i32, ptr %5, align 4, !tbaa !8
  %40 = call ptr @Fra_SmlSimulateSeq(ptr noundef %32, i32 noundef %37, i32 noundef %38, i32 noundef %39, i32 noundef 1)
  store ptr %40, ptr %6, align 8, !tbaa !3
  %41 = load ptr, ptr %3, align 8, !tbaa !53
  %42 = getelementptr inbounds nuw %struct.Fra_Man_t_, ptr %41, i32 0, i32 6
  %43 = load ptr, ptr %42, align 8, !tbaa !94
  %44 = getelementptr inbounds nuw %struct.Fra_Cla_t_, ptr %43, i32 0, i32 11
  %45 = load ptr, ptr %44, align 8, !tbaa !101
  %46 = call i32 @Vec_IntSize(ptr noundef %45)
  %47 = sext i32 %46 to i64
  %48 = mul i64 1, %47
  %49 = call noalias ptr @malloc(i64 noundef %48) #11
  store ptr %49, ptr %7, align 8, !tbaa !79
  %50 = load ptr, ptr %7, align 8, !tbaa !79
  %51 = load ptr, ptr %3, align 8, !tbaa !53
  %52 = getelementptr inbounds nuw %struct.Fra_Man_t_, ptr %51, i32 0, i32 6
  %53 = load ptr, ptr %52, align 8, !tbaa !94
  %54 = getelementptr inbounds nuw %struct.Fra_Cla_t_, ptr %53, i32 0, i32 11
  %55 = load ptr, ptr %54, align 8, !tbaa !101
  %56 = call i32 @Vec_IntSize(ptr noundef %55)
  %57 = sext i32 %56 to i64
  %58 = mul i64 1, %57
  call void @llvm.memset.p0.i64(ptr align 1 %50, i8 0, i64 %58, i1 false)
  store i32 0, ptr %11, align 4, !tbaa !8
  br label %59

59:                                               ; preds = %95, %29
  %60 = load i32, ptr %11, align 4, !tbaa !8
  %61 = load ptr, ptr %3, align 8, !tbaa !53
  %62 = getelementptr inbounds nuw %struct.Fra_Man_t_, ptr %61, i32 0, i32 6
  %63 = load ptr, ptr %62, align 8, !tbaa !94
  %64 = getelementptr inbounds nuw %struct.Fra_Cla_t_, ptr %63, i32 0, i32 11
  %65 = load ptr, ptr %64, align 8, !tbaa !101
  %66 = call i32 @Vec_IntSize(ptr noundef %65)
  %67 = icmp slt i32 %60, %66
  br i1 %67, label %68, label %76

68:                                               ; preds = %59
  %69 = load ptr, ptr %3, align 8, !tbaa !53
  %70 = getelementptr inbounds nuw %struct.Fra_Man_t_, ptr %69, i32 0, i32 6
  %71 = load ptr, ptr %70, align 8, !tbaa !94
  %72 = getelementptr inbounds nuw %struct.Fra_Cla_t_, ptr %71, i32 0, i32 11
  %73 = load ptr, ptr %72, align 8, !tbaa !101
  %74 = load i32, ptr %11, align 4, !tbaa !8
  %75 = call i32 @Vec_IntEntry(ptr noundef %73, i32 noundef %74)
  store i32 %75, ptr %10, align 4, !tbaa !8
  br label %76

76:                                               ; preds = %68, %59
  %77 = phi i1 [ false, %59 ], [ true, %68 ]
  br i1 %77, label %78, label %98

78:                                               ; preds = %76
  %79 = load i32, ptr %10, align 4, !tbaa !8
  %80 = call i32 @Fra_ImpLeft(i32 noundef %79)
  store i32 %80, ptr %8, align 4, !tbaa !8
  %81 = load i32, ptr %10, align 4, !tbaa !8
  %82 = call i32 @Fra_ImpRight(i32 noundef %81)
  store i32 %82, ptr %9, align 4, !tbaa !8
  %83 = load ptr, ptr %6, align 8, !tbaa !3
  %84 = load i32, ptr %8, align 4, !tbaa !8
  %85 = load i32, ptr %9, align 4, !tbaa !8
  %86 = call i32 @Sml_NodeCheckImp(ptr noundef %83, i32 noundef %84, i32 noundef %85)
  %87 = icmp ne i32 %86, 0
  %88 = xor i1 %87, true
  %89 = zext i1 %88 to i32
  %90 = trunc i32 %89 to i8
  %91 = load ptr, ptr %7, align 8, !tbaa !79
  %92 = load i32, ptr %11, align 4, !tbaa !8
  %93 = sext i32 %92 to i64
  %94 = getelementptr inbounds i8, ptr %91, i64 %93
  store i8 %90, ptr %94, align 1, !tbaa !90
  br label %95

95:                                               ; preds = %78
  %96 = load i32, ptr %11, align 4, !tbaa !8
  %97 = add nsw i32 %96, 1
  store i32 %97, ptr %11, align 4, !tbaa !8
  br label %59, !llvm.loop !105

98:                                               ; preds = %76
  store i32 0, ptr %12, align 4, !tbaa !8
  store i32 0, ptr %11, align 4, !tbaa !8
  br label %99

99:                                               ; preds = %117, %98
  %100 = load i32, ptr %11, align 4, !tbaa !8
  %101 = load ptr, ptr %3, align 8, !tbaa !53
  %102 = getelementptr inbounds nuw %struct.Fra_Man_t_, ptr %101, i32 0, i32 6
  %103 = load ptr, ptr %102, align 8, !tbaa !94
  %104 = getelementptr inbounds nuw %struct.Fra_Cla_t_, ptr %103, i32 0, i32 11
  %105 = load ptr, ptr %104, align 8, !tbaa !101
  %106 = call i32 @Vec_IntSize(ptr noundef %105)
  %107 = icmp slt i32 %100, %106
  br i1 %107, label %108, label %120

108:                                              ; preds = %99
  %109 = load ptr, ptr %7, align 8, !tbaa !79
  %110 = load i32, ptr %11, align 4, !tbaa !8
  %111 = sext i32 %110 to i64
  %112 = getelementptr inbounds i8, ptr %109, i64 %111
  %113 = load i8, ptr %112, align 1, !tbaa !90
  %114 = sext i8 %113 to i32
  %115 = load i32, ptr %12, align 4, !tbaa !8
  %116 = add nsw i32 %115, %114
  store i32 %116, ptr %12, align 4, !tbaa !8
  br label %117

117:                                              ; preds = %108
  %118 = load i32, ptr %11, align 4, !tbaa !8
  %119 = add nsw i32 %118, 1
  store i32 %119, ptr %11, align 4, !tbaa !8
  br label %99, !llvm.loop !106

120:                                              ; preds = %99
  %121 = load ptr, ptr %7, align 8, !tbaa !79
  %122 = icmp ne ptr %121, null
  br i1 %122, label %123, label %125

123:                                              ; preds = %120
  %124 = load ptr, ptr %7, align 8, !tbaa !79
  call void @free(ptr noundef %124) #10
  store ptr null, ptr %7, align 8, !tbaa !79
  br label %126

125:                                              ; preds = %120
  br label %126

126:                                              ; preds = %125, %123
  %127 = load ptr, ptr %6, align 8, !tbaa !3
  call void @Fra_SmlStop(ptr noundef %127)
  %128 = load i32, ptr %12, align 4, !tbaa !8
  store i32 %128, ptr %2, align 4
  store i32 1, ptr %13, align 4
  br label %129

129:                                              ; preds = %126, %28
  call void @llvm.lifetime.end.p0(i64 4, ptr %12) #10
  call void @llvm.lifetime.end.p0(i64 4, ptr %11) #10
  call void @llvm.lifetime.end.p0(i64 4, ptr %10) #10
  call void @llvm.lifetime.end.p0(i64 4, ptr %9) #10
  call void @llvm.lifetime.end.p0(i64 4, ptr %8) #10
  call void @llvm.lifetime.end.p0(i64 8, ptr %7) #10
  call void @llvm.lifetime.end.p0(i64 8, ptr %6) #10
  call void @llvm.lifetime.end.p0(i64 4, ptr %5) #10
  call void @llvm.lifetime.end.p0(i64 4, ptr %4) #10
  %130 = load i32, ptr %2, align 4
  ret i32 %130
}