; Function Attrs: nounwind uwtable
define i32 @Fra_ImpVerifyUsingSimulation(ptr noundef readonly captures(none) %0) local_unnamed_addr #0 {
  %2 = getelementptr inbounds nuw i8, ptr %0, i64 48
  %3 = load ptr, ptr %2, align 8, !tbaa !91
  %4 = getelementptr inbounds nuw i8, ptr %3, i64 80
  %5 = load ptr, ptr %4, align 8, !tbaa !97
  %6 = icmp eq ptr %5, null
  br i1 %6, label %54, label %7

7:                                                ; preds = %1
  %8 = getelementptr i8, ptr %5, i64 4
  %.val39 = load i32, ptr %8, align 4, !tbaa !38
  %9 = icmp eq i32 %.val39, 0
  br i1 %9, label %54, label %10

10:                                               ; preds = %7
  %11 = getelementptr inbounds nuw i8, ptr %0, i64 8
  %12 = load ptr, ptr %11, align 8, !tbaa !50
  %13 = load ptr, ptr %0, align 8, !tbaa !58
  %14 = getelementptr inbounds nuw i8, ptr %13, i64 76
  %15 = load i32, ptr %14, align 4, !tbaa !59
  %16 = tail call ptr @Fra_SmlSimulateSeq(ptr noundef %12, i32 noundef %15, i32 noundef 2000, i32 noundef 8, i32 noundef 1) #20
  %17 = load ptr, ptr %2, align 8, !tbaa !91
  %18 = getelementptr inbounds nuw i8, ptr %17, i64 80
  %19 = load ptr, ptr %18, align 8, !tbaa !97
  %20 = getelementptr i8, ptr %19, i64 4
  %.val38 = load i32, ptr %20, align 4, !tbaa !38
  %21 = sext i32 %.val38 to i64
  %calloc = tail call ptr @calloc(i64 1, i64 %21)
  %22 = icmp sgt i32 %.val38, 0
  br i1 %22, label %.lr.ph, label %.critedge._crit_edge

.lr.ph:                                           ; preds = %10
  %23 = getelementptr i8, ptr %19, i64 8
  %.val40 = load ptr, ptr %23, align 8, !tbaa !43
  %24 = getelementptr inbounds nuw i8, ptr %16, i64 40
  %25 = getelementptr inbounds nuw i8, ptr %16, i64 20
  %26 = load i32, ptr %25, align 4, !tbaa !27
  %27 = getelementptr inbounds nuw i8, ptr %16, i64 24
  %28 = load i32, ptr %27, align 8, !tbaa !28
  %29 = icmp slt i32 %28, %26
  %30 = sext i32 %28 to i64
  %wide.trip.count = zext nneg i32 %.val38 to i64
  br i1 %29, label %.lr.ph.preheader.i.us, label %.critedge.preheader.thread

.critedge.preheader.thread:                       ; preds = %.lr.ph
  tail call void @llvm.memset.p0.i64(ptr align 1 %calloc, i8 0, i64 %wide.trip.count, i1 false), !tbaa !82
  br label %.critedge.preheader45

.lr.ph.preheader.i.us:                            ; preds = %.lr.ph, %Sml_NodeCheckImp.exit.loopexit.us
  %indvars.iv = phi i64 [ %indvars.iv.next, %Sml_NodeCheckImp.exit.loopexit.us ], [ 0, %.lr.ph ]
  %31 = getelementptr inbounds nuw i32, ptr %.val40, i64 %indvars.iv
  %32 = load i32, ptr %31, align 4, !tbaa !29
  %33 = and i32 %32, 65535
  %34 = ashr i32 %32, 16
  %35 = mul nsw i32 %26, %33
  %36 = sext i32 %35 to i64
  %37 = getelementptr inbounds i32, ptr %24, i64 %36
  %38 = mul nsw i32 %26, %34
  %39 = sext i32 %38 to i64
  %40 = getelementptr inbounds i32, ptr %24, i64 %39
  br label %.lr.ph.i.us

.lr.ph.i.us:                                      ; preds = %47, %.lr.ph.preheader.i.us
  %indvars.iv.i.us = phi i64 [ %30, %.lr.ph.preheader.i.us ], [ %indvars.iv.next.i.us, %47 ]
  %41 = getelementptr inbounds i32, ptr %37, i64 %indvars.iv.i.us
  %42 = load i32, ptr %41, align 4, !tbaa !29
  %43 = getelementptr inbounds i32, ptr %40, i64 %indvars.iv.i.us
  %44 = load i32, ptr %43, align 4, !tbaa !29
  %45 = xor i32 %44, -1
  %46 = and i32 %42, %45
  %.not.i.us = icmp eq i32 %46, 0
  br i1 %.not.i.us, label %47, label %Sml_NodeCheckImp.exit.loopexit.us

47:                                               ; preds = %.lr.ph.i.us
  %indvars.iv.next.i.us = add nsw i64 %indvars.iv.i.us, 1
  %lftr.wideiv.i.us = trunc i64 %indvars.iv.next.i.us to i32
  %exitcond.not.i.us = icmp eq i32 %26, %lftr.wideiv.i.us
  br i1 %exitcond.not.i.us, label %Sml_NodeCheckImp.exit.loopexit.us, label %.lr.ph.i.us, !llvm.loop !67

Sml_NodeCheckImp.exit.loopexit.us:                ; preds = %47, %.lr.ph.i.us
  %.012.i.ph.us = phi i8 [ 1, %.lr.ph.i.us ], [ 0, %47 ]
  %48 = getelementptr inbounds nuw i8, ptr %calloc, i64 %indvars.iv
  store i8 %.012.i.ph.us, ptr %48, align 1, !tbaa !82
  %indvars.iv.next = add nuw nsw i64 %indvars.iv, 1
  %exitcond.not = icmp eq i64 %indvars.iv.next, %wide.trip.count
  br i1 %exitcond.not, label %.critedge.preheader45, label %.lr.ph.preheader.i.us, !llvm.loop !100

.critedge.preheader45:                            ; preds = %Sml_NodeCheckImp.exit.loopexit.us, %.critedge.preheader.thread
  %wide.trip.count52 = zext nneg i32 %.val38 to i64
  br label %.critedge

.critedge:                                        ; preds = %.critedge.preheader45, %.critedge
  %indvars.iv49 = phi i64 [ 0, %.critedge.preheader45 ], [ %indvars.iv.next50, %.critedge ]
  %.043 = phi i32 [ 0, %.critedge.preheader45 ], [ %52, %.critedge ]
  %49 = getelementptr inbounds nuw i8, ptr %calloc, i64 %indvars.iv49
  %50 = load i8, ptr %49, align 1, !tbaa !82
  %51 = sext i8 %50 to i32
  %52 = add nsw i32 %.043, %51
  %indvars.iv.next50 = add nuw nsw i64 %indvars.iv49, 1
  %exitcond53.not = icmp eq i64 %indvars.iv.next50, %wide.trip.count52
  br i1 %exitcond53.not, label %.critedge._crit_edge.thread, label %.critedge, !llvm.loop !101

.critedge._crit_edge:                             ; preds = %10
  %.not = icmp eq ptr %calloc, null
  br i1 %.not, label %53, label %.critedge._crit_edge.thread

.critedge._crit_edge.thread:                      ; preds = %.critedge, %.critedge._crit_edge
  %.0.lcssa57 = phi i32 [ 0, %.critedge._crit_edge ], [ %52, %.critedge ]
  tail call void @free(ptr noundef nonnull %calloc) #20
  br label %53

53:                                               ; preds = %.critedge._crit_edge, %.critedge._crit_edge.thread
  %.0.lcssa58 = phi i32 [ 0, %.critedge._crit_edge ], [ %.0.lcssa57, %.critedge._crit_edge.thread ]
  tail call void @Fra_SmlStop(ptr noundef %16) #20
  br label %54

54:                                               ; preds = %1, %7, %53
  %.032 = phi i32 [ %.0.lcssa58, %53 ], [ 0, %7 ], [ 0, %1 ]
  ret i32 %.032
}